; ModuleID = '44/104.c'
source_filename = "44/104.c"
target datalayout = "e-m:e-p270:32:32-p271:32:32-p272:64:64-i64:64-f80:128-n8:16:32:64-S128"
target triple = "x86_64-pc-linux-gnu"

@.str = private unnamed_addr constant [3 x i8] c"%d\00", align 1
@.str.1 = private unnamed_addr constant [4 x i8] c"\0A%d\00", align 1

; Function Attrs: noinline nounwind uwtable
define dso_local i32 @main() #0 {
  %1 = alloca i32, align 4
  %2 = alloca [6 x i32], align 16
  %3 = alloca i32, align 4
  store i32 0, i32* %1, align 4
  store i32 0, i32* %3, align 4
  br label %4

4:                                                ; preds = %12, %0
  %5 = load i32, i32* %3, align 4
  %6 = icmp sle i32 %5, 5
  br i1 %6, label %7, label %15

7:                                                ; preds = %4
  %8 = load i32, i32* %3, align 4
  %9 = sext i32 %8 to i64
  %10 = getelementptr inbounds [6 x i32], [6 x i32]* %2, i64 0, i64 %9
  %11 = call i32 (i8*, ...) @__isoc99_scanf(i8* getelementptr inbounds ([3 x i8], [3 x i8]* @.str, i64 0, i64 0), i32* %10)
  br label %12

12:                                               ; preds = %7
  %13 = load i32, i32* %3, align 4
  %14 = add nsw i32 %13, 1
  store i32 %14, i32* %3, align 4
  br label %4

15:                                               ; preds = %4
  store i32 0, i32* %3, align 4
  br label %16

16:                                               ; preds = %37, %15
  %17 = load i32, i32* %3, align 4
  %18 = icmp sle i32 %17, 5
  br i1 %18, label %19, label %40

19:                                               ; preds = %16
  %20 = load i32, i32* %3, align 4
  %21 = icmp eq i32 %20, 0
  br i1 %21, label %22, label %29

22:                                               ; preds = %19
  %23 = load i32, i32* %3, align 4
  %24 = sext i32 %23 to i64
  %25 = getelementptr inbounds [6 x i32], [6 x i32]* %2, i64 0, i64 %24
  %26 = load i32, i32* %25, align 4
  %27 = call i32 @reverse(i32 %26)
  %28 = call i32 (i8*, ...) @printf(i8* getelementptr inbounds ([3 x i8], [3 x i8]* @.str, i64 0, i64 0), i32 %27)
  br label %36

29:                                               ; preds = %19
  %30 = load i32, i32* %3, align 4
  %31 = sext i32 %30 to i64
  %32 = getelementptr inbounds [6 x i32], [6 x i32]* %2, i64 0, i64 %31
  %33 = load i32, i32* %32, align 4
  %34 = call i32 @reverse(i32 %33)
  %35 = call i32 (i8*, ...) @printf(i8* getelementptr inbounds ([4 x i8], [4 x i8]* @.str.1, i64 0, i64 0), i32 %34)
  br label %36

36:                                               ; preds = %29, %22
  br label %37

37:                                               ; preds = %36
  %38 = load i32, i32* %3, align 4
  %39 = add nsw i32 %38, 1
  store i32 %39, i32* %3, align 4
  br label %16

40:                                               ; preds = %16
  %41 = call i32 @getchar()
  %42 = call i32 @getchar()
  %43 = load i32, i32* %1, align 4
  ret i32 %43
}

declare dso_local i32 @__isoc99_scanf(i8*, ...) #1

declare dso_local i32 @printf(i8*, ...) #1

; Function Attrs: noinline nounwind uwtable
define dso_local i32 @reverse(i32 %0) #0 {
  %2 = alloca i32, align 4
  %3 = alloca i32, align 4
  %4 = alloca i32, align 4
  %5 = alloca i32, align 4
  store i32 %0, i32* %2, align 4
  %6 = load i32, i32* %2, align 4
  store i32 %6, i32* %3, align 4
  store i32 0, i32* %5, align 4
  br label %7

7:                                                ; preds = %10, %1
  %8 = load i32, i32* %3, align 4
  %9 = icmp ne i32 %8, 0
  br i1 %9, label %10, label %19

10:                                               ; preds = %7
  %11 = load i32, i32* %3, align 4
  %12 = srem i32 %11, 10
  store i32 %12, i32* %4, align 4
  %13 = load i32, i32* %3, align 4
  %14 = sdiv i32 %13, 10
  store i32 %14, i32* %3, align 4
  %15 = load i32, i32* %4, align 4
  %16 = load i32, i32* %5, align 4
  %17 = mul nsw i32 %16, 10
  %18 = add nsw i32 %15, %17
  store i32 %18, i32* %5, align 4
  br label %7

19:                                               ; preds = %7
  %20 = load i32, i32* %5, align 4
  ret i32 %20
}

declare dso_local i32 @getchar() #1


!llvm.module.flags = !{!0}
!llvm.ident = !{!1}

!0 = !{i32 1, !"wchar_size", i32 4}
!1 = !{!"clang version 10.0.0-4ubuntu1 "}
